; Function Attrs: mustprogress uwtable
define internal noundef i32 @_ZN12_GLOBAL__N_19NinjaMain13ToolCleanDeadEPKNS_7OptionsEiPPc(ptr noundef nonnull align 8 dereferenceable(536) %0, ptr nocapture readnone %1, i32 %2, ptr nocapture readnone %3) #12 align 2 personality ptr @__gxx_personality_v0 {
  %5 = alloca %struct.Cleaner, align 8
  %6 = getelementptr inbounds i8, ptr %0, i64 24
  %7 = getelementptr inbounds i8, ptr %0, i64 16
  %8 = load ptr, ptr %7, align 8
  %9 = getelementptr inbounds i8, ptr %0, i64 288
  call void @_ZN7CleanerC1EP5StateRK11BuildConfigP13DiskInterface(ptr noundef nonnull align 8 dereferenceable(148) %5, ptr noundef nonnull %6, ptr noundef nonnull align 8 dereferenceable(25) %8, ptr noundef nonnull %9)
  %10 = getelementptr inbounds i8, ptr %0, i64 328
  %11 = invoke noundef i32 @_ZN7Cleaner9CleanDeadERKSt13unordered_mapI11StringPiecePN8BuildLog8LogEntryESt4hashIS1_ESt8equal_toIS1_ESaISt4pairIKS1_S4_EEE(ptr noundef nonnull align 8 dereferenceable(148) %5, ptr noundef nonnull align 8 dereferenceable(56) %10)
          to label %12 unwind label %25

12:                                               ; preds = %4
  %13 = getelementptr inbounds i8, ptr %5, i64 80
  %14 = getelementptr inbounds i8, ptr %5, i64 96
  %15 = load ptr, ptr %14, align 8
  invoke void @_ZNSt8_Rb_treeIP4NodeS1_St9_IdentityIS1_ESt4lessIS1_ESaIS1_EE8_M_eraseEPSt13_Rb_tree_nodeIS1_E(ptr noundef nonnull align 8 dereferenceable(48) %13, ptr noundef %15)
          to label %_ZNSt3setIP4NodeSt4lessIS1_ESaIS1_EED2Ev.exit.i unwind label %16

16:                                               ; preds = %12
  %17 = landingpad { ptr, i32 }
          catch ptr null
  %18 = extractvalue { ptr, i32 } %17, 0
  call void @__clang_call_terminate(ptr %18) #30
  unreachable

_ZNSt3setIP4NodeSt4lessIS1_ESaIS1_EED2Ev.exit.i:  ; preds = %12
  %19 = getelementptr inbounds i8, ptr %5, i64 32
  %20 = getelementptr inbounds i8, ptr %5, i64 48
  %21 = load ptr, ptr %20, align 8
  invoke void @_ZNSt8_Rb_treeINSt7__cxx1112basic_stringIcSt11char_traitsIcESaIcEEES5_St9_IdentityIS5_ESt4lessIS5_ESaIS5_EE8_M_eraseEPSt13_Rb_tree_nodeIS5_E(ptr noundef nonnull align 8 dereferenceable(48) %19, ptr noundef %21)
          to label %_ZN7CleanerD2Ev.exit unwind label %22

22:                                               ; preds = %_ZNSt3setIP4NodeSt4lessIS1_ESaIS1_EED2Ev.exit.i
  %23 = landingpad { ptr, i32 }
          catch ptr null
  %24 = extractvalue { ptr, i32 } %23, 0
  call void @__clang_call_terminate(ptr %24) #30
  unreachable

_ZN7CleanerD2Ev.exit:                             ; preds = %_ZNSt3setIP4NodeSt4lessIS1_ESaIS1_EED2Ev.exit.i
  ret i32 %11

25:                                               ; preds = %4
  %26 = landingpad { ptr, i32 }
          cleanup
  call void @_ZN7CleanerD2Ev(ptr noundef nonnull align 8 dereferenceable(148) %5) #26
  resume { ptr, i32 } %26
}